; ModuleID = '37/454.c'
source_filename = "37/454.c"
target datalayout = "e-m:e-p270:32:32-p271:32:32-p272:64:64-i64:64-f80:128-n8:16:32:64-S128"
target triple = "x86_64-pc-linux-gnu"

@.str = private unnamed_addr constant [4 x i8] c"%c\0A\00", align 1
@.str.1 = private unnamed_addr constant [3 x i8] c"no\00", align 1
@.str.2 = private unnamed_addr constant [2 x i8] c"\0A\00", align 1

; Function Attrs: noinline nounwind uwtable
define dso_local void @main() #0 {
  %1 = alloca i32, align 4
  %2 = alloca i32, align 4
  %3 = alloca i32, align 4
  %4 = alloca i32, align 4
  %5 = alloca i32, align 4
  %6 = alloca i32, align 4
  %7 = alloca i8*, align 8
  %8 = alloca [100 x i8*], align 16
  store i32 0, i32* %6, align 4
  %9 = call noalias i8* @malloc(i64 200) #4
  store i8* %9, i8** %7, align 8
  %10 = load i8*, i8** %7, align 8
  %11 = call i32 (i8*, ...) bitcast (i32 (...)* @gets to i32 (i8*, ...)*)(i8* %10)
  %12 = load i8*, i8** %7, align 8
  %13 = call i32 @atoi(i8* %12) #5
  store i32 %13, i32* %1, align 4
  store i32 0, i32* %2, align 4
  br label %14

14:                                               ; preds = %23, %0
  %15 = load i32, i32* %2, align 4
  %16 = load i32, i32* %1, align 4
  %17 = icmp slt i32 %15, %16
  br i1 %17, label %18, label %26

18:                                               ; preds = %14
  %19 = call noalias i8* @malloc(i64 100001) #4
  %20 = load i32, i32* %2, align 4
  %21 = sext i32 %20 to i64
  %22 = getelementptr inbounds [100 x i8*], [100 x i8*]* %8, i64 0, i64 %21
  store i8* %19, i8** %22, align 8
  br label %23

23:                                               ; preds = %18
  %24 = load i32, i32* %2, align 4
  %25 = add nsw i32 %24, 1
  store i32 %25, i32* %2, align 4
  br label %14

26:                                               ; preds = %14
  store i32 0, i32* %2, align 4
  br label %27

27:                                               ; preds = %37, %26
  %28 = load i32, i32* %2, align 4
  %29 = load i32, i32* %1, align 4
  %30 = icmp slt i32 %28, %29
  br i1 %30, label %31, label %40

31:                                               ; preds = %27
  %32 = load i32, i32* %2, align 4
  %33 = sext i32 %32 to i64
  %34 = getelementptr inbounds [100 x i8*], [100 x i8*]* %8, i64 0, i64 %33
  %35 = load i8*, i8** %34, align 8
  %36 = call i32 (i8*, ...) bitcast (i32 (...)* @gets to i32 (i8*, ...)*)(i8* %35)
  br label %37

37:                                               ; preds = %31
  %38 = load i32, i32* %2, align 4
  %39 = add nsw i32 %38, 1
  store i32 %39, i32* %2, align 4
  br label %27

40:                                               ; preds = %27
  store i32 0, i32* %2, align 4
  br label %41

41:                                               ; preds = %96, %40
  br label %42

42:                                               ; preds = %117, %41
  %43 = load i32, i32* %2, align 4
  %44 = load i32, i32* %1, align 4
  %45 = icmp slt i32 %43, %44
  br i1 %45, label %46, label %120

46:                                               ; preds = %42
  %47 = load i32, i32* %2, align 4
  %48 = sext i32 %47 to i64
  %49 = getelementptr inbounds [100 x i8*], [100 x i8*]* %8, i64 0, i64 %48
  %50 = load i8*, i8** %49, align 8
  %51 = call i64 @strlen(i8* %50) #5
  %52 = trunc i64 %51 to i32
  store i32 %52, i32* %5, align 4
  store i32 0, i32* %3, align 4
  br label %53

53:                                               ; preds = %111, %46
  %54 = load i32, i32* %3, align 4
  %55 = load i32, i32* %5, align 4
  %56 = icmp slt i32 %54, %55
  br i1 %56, label %57, label %114

57:                                               ; preds = %53
  store i32 0, i32* %4, align 4
  br label %58

58:                                               ; preds = %90, %57
  %59 = load i32, i32* %4, align 4
  %60 = load i32, i32* %5, align 4
  %61 = icmp slt i32 %59, %60
  br i1 %61, label %62, label %93

62:                                               ; preds = %58
  %63 = getelementptr inbounds [100 x i8*], [100 x i8*]* %8, i64 0, i64 0
  %64 = load i32, i32* %2, align 4
  %65 = sext i32 %64 to i64
  %66 = getelementptr inbounds i8*, i8** %63, i64 %65
  %67 = load i8*, i8** %66, align 8
  %68 = load i32, i32* %3, align 4
  %69 = sext i32 %68 to i64
  %70 = getelementptr inbounds i8, i8* %67, i64 %69
  %71 = load i8, i8* %70, align 1
  %72 = sext i8 %71 to i32
  %73 = getelementptr inbounds [100 x i8*], [100 x i8*]* %8, i64 0, i64 0
  %74 = load i32, i32* %2, align 4
  %75 = sext i32 %74 to i64
  %76 = getelementptr inbounds i8*, i8** %73, i64 %75
  %77 = load i8*, i8** %76, align 8
  %78 = load i32, i32* %4, align 4
  %79 = sext i32 %78 to i64
  %80 = getelementptr inbounds i8, i8* %77, i64 %79
  %81 = load i8, i8* %80, align 1
  %82 = sext i8 %81 to i32
  %83 = icmp eq i32 %72, %82
  br i1 %83, label %84, label %89

84:                                               ; preds = %62
  %85 = load i32, i32* %3, align 4
  %86 = load i32, i32* %4, align 4
  %87 = icmp ne i32 %85, %86
  br i1 %87, label %88, label %89

88:                                               ; preds = %84
  store i32 1, i32* %6, align 4
  br label %89

89:                                               ; preds = %88, %84, %62
  br label %90

90:                                               ; preds = %89
  %91 = load i32, i32* %4, align 4
  %92 = add nsw i32 %91, 1
  store i32 %92, i32* %4, align 4
  br label %58

93:                                               ; preds = %58
  %94 = load i32, i32* %6, align 4
  %95 = icmp eq i32 %94, 0
  br i1 %95, label %96, label %110

96:                                               ; preds = %93
  %97 = getelementptr inbounds [100 x i8*], [100 x i8*]* %8, i64 0, i64 0
  %98 = load i32, i32* %2, align 4
  %99 = sext i32 %98 to i64
  %100 = getelementptr inbounds i8*, i8** %97, i64 %99
  %101 = load i8*, i8** %100, align 8
  %102 = load i32, i32* %3, align 4
  %103 = sext i32 %102 to i64
  %104 = getelementptr inbounds i8, i8* %101, i64 %103
  %105 = load i8, i8* %104, align 1
  %106 = sext i8 %105 to i32
  %107 = call i32 (i8*, ...) @printf(i8* getelementptr inbounds ([4 x i8], [4 x i8]* @.str, i64 0, i64 0), i32 %106)
  %108 = load i32, i32* %2, align 4
  %109 = add nsw i32 %108, 1
  store i32 %109, i32* %2, align 4
  br label %41

110:                                              ; preds = %93
  store i32 0, i32* %6, align 4
  br label %111

111:                                              ; preds = %110
  %112 = load i32, i32* %3, align 4
  %113 = add nsw i32 %112, 1
  store i32 %113, i32* %3, align 4
  br label %53

114:                                              ; preds = %53
  %115 = call i32 (i8*, ...) @printf(i8* getelementptr inbounds ([3 x i8], [3 x i8]* @.str.1, i64 0, i64 0))
  %116 = call i32 (i8*, ...) @printf(i8* getelementptr inbounds ([2 x i8], [2 x i8]* @.str.2, i64 0, i64 0))
  br label %117

117:                                              ; preds = %114
  %118 = load i32, i32* %2, align 4
  %119 = add nsw i32 %118, 1
  store i32 %119, i32* %2, align 4
  br label %42

120:                                              ; preds = %42
  ret void
}

; Function Attrs: nounwind
declare dso_local noalias i8* @malloc(i64) #1

declare dso_local i32 @gets(...) #2

; Function Attrs: nounwind readonly
declare dso_local i32 @atoi(i8*) #3

; Function Attrs: nounwind readonly
declare dso_local i64 @strlen(i8*) #3

declare dso_local i32 @printf(i8*, ...) #2


!llvm.module.flags = !{!0}
!llvm.ident = !{!1}

!0 = !{i32 1, !"wchar_size", i32 4}
!1 = !{!"clang version 10.0.0-4ubuntu1 "}
